; Function Attrs: mustprogress nounwind uwtable
define hidden noundef nonnull align 8 dereferenceable(96) ptr @_ZNK8MachNode10in_RegMaskEj(ptr noundef nonnull align 8 dereferenceable(64) %0, i32 noundef %1) unnamed_addr #6 align 2 {
  %3 = load ptr, ptr %0, align 8
  %4 = getelementptr inbounds i8, ptr %3, i64 200
  %5 = load ptr, ptr %4, align 8
  %6 = tail call noundef i32 %5(ptr noundef nonnull align 8 dereferenceable(64) %0) #13
  %7 = icmp ugt i32 %6, %1
  br i1 %7, label %8, label %19

8:                                                ; preds = %2
  %9 = tail call align 8 ptr @llvm.threadlocal.address.p0(ptr align 8 @_ZN6Thread12_thr_currentE)
  %10 = load ptr, ptr %9, align 8
  %11 = getelementptr inbounds i8, ptr %10, i64 1808
  %12 = load ptr, ptr %11, align 8
  %13 = getelementptr inbounds i8, ptr %12, i64 128
  %14 = load ptr, ptr %13, align 8
  %15 = getelementptr inbounds i8, ptr %14, i64 2152
  %16 = load ptr, ptr %15, align 8
  %17 = getelementptr inbounds i8, ptr %16, i64 360
  %18 = load ptr, ptr %17, align 8
  br label %60

19:                                               ; preds = %2
  %20 = getelementptr inbounds i8, ptr %0, i64 56
  %21 = load ptr, ptr %20, align 8
  %22 = getelementptr inbounds i8, ptr %21, i64 8
  %23 = load ptr, ptr %22, align 8
  %24 = load ptr, ptr %23, align 8
  %25 = getelementptr inbounds i8, ptr %24, i64 8
  %26 = load ptr, ptr %25, align 8
  %27 = tail call noundef i32 %26(ptr noundef nonnull align 8 dereferenceable(8) %23) #13
  %28 = add i32 %27, %6
  %.not25 = icmp ugt i32 %28, %1
  br i1 %.not25, label %._crit_edge, label %.lr.ph

.lr.ph:                                           ; preds = %19, %.lr.ph
  %29 = phi i32 [ %39, %.lr.ph ], [ %28, %19 ]
  %.01726 = phi i32 [ %30, %.lr.ph ], [ 1, %19 ]
  %30 = add i32 %.01726, 1
  %31 = load ptr, ptr %20, align 8
  %32 = zext i32 %30 to i64
  %33 = getelementptr inbounds ptr, ptr %31, i64 %32
  %34 = load ptr, ptr %33, align 8
  %35 = load ptr, ptr %34, align 8
  %36 = getelementptr inbounds i8, ptr %35, i64 8
  %37 = load ptr, ptr %36, align 8
  %38 = tail call noundef i32 %37(ptr noundef nonnull align 8 dereferenceable(8) %34) #13
  %39 = add i32 %38, %29
  %.not = icmp ugt i32 %39, %1
  br i1 %.not, label %._crit_edge, label %.lr.ph, !llvm.loop !11

._crit_edge:                                      ; preds = %.lr.ph, %19
  %.018.lcssa = phi i32 [ %6, %19 ], [ %29, %.lr.ph ]
  %.017.lcssa = phi i32 [ 1, %19 ], [ %30, %.lr.ph ]
  %40 = load ptr, ptr %0, align 8
  %41 = getelementptr inbounds i8, ptr %40, i64 232
  %42 = load ptr, ptr %41, align 8
  %43 = tail call noundef ptr %42(ptr noundef nonnull align 8 dereferenceable(64) %0) #13
  %44 = icmp eq ptr %43, null
  br i1 %44, label %50, label %45

45:                                               ; preds = %._crit_edge
  %46 = load ptr, ptr %0, align 8
  %47 = getelementptr inbounds i8, ptr %46, i64 184
  %48 = load ptr, ptr %47, align 8
  %49 = tail call noundef i32 %48(ptr noundef nonnull align 8 dereferenceable(52) %0) #13
  %.not24 = icmp eq i32 %.017.lcssa, %49
  br i1 %.not24, label %60, label %50

50:                                               ; preds = %45, %._crit_edge
  %51 = load ptr, ptr %20, align 8
  %52 = zext i32 %.017.lcssa to i64
  %53 = getelementptr inbounds ptr, ptr %51, i64 %52
  %54 = load ptr, ptr %53, align 8
  %55 = sub i32 %1, %.018.lcssa
  %56 = load ptr, ptr %54, align 8
  %57 = getelementptr inbounds i8, ptr %56, i64 16
  %58 = load ptr, ptr %57, align 8
  %59 = tail call noundef ptr %58(ptr noundef nonnull align 8 dereferenceable(8) %54, i32 noundef %55) #13
  br label %60

60:                                               ; preds = %45, %50, %8
  %.019 = phi ptr [ %18, %8 ], [ %59, %50 ], [ %43, %45 ]
  ret ptr %.019
}